(dp0
S'test'
p1
(dp2
S'Website'
p3
S'fake.com'
p4
sS'Phone'
p5
S'123-456-7890'
p6
sS'Email'
p7
S'fake@gmail.com'
p8
ssS'test2'
p9
(dp10
S'Website'
p11
S'happy.com'
p12
sS'Phone'
p13
S'123-456-5432'
p14
sS'Email'
p15
S'anotherfake@gmail.com'
p16
ss.